; Function Attrs: nounwind uwtable
define hidden zeroext i1 @SDL_CopyFile_REAL(ptr noundef %0, ptr noundef %1) local_unnamed_addr #0 {
  %.not = icmp eq ptr %0, null
  br i1 %.not, label %3, label %5

3:                                                ; preds = %2
  %4 = tail call zeroext i1 (ptr, ...) @SDL_SetError_REAL(ptr noundef nonnull @.str, ptr noundef nonnull @.str.2) #8
  br label %10

5:                                                ; preds = %2
  %.not7 = icmp eq ptr %1, null
  br i1 %.not7, label %6, label %8

6:                                                ; preds = %5
  %7 = tail call zeroext i1 (ptr, ...) @SDL_SetError_REAL(ptr noundef nonnull @.str, ptr noundef nonnull @.str.3) #8
  br label %10

8:                                                ; preds = %5
  %9 = tail call zeroext i1 @SDL_SYS_CopyFile(ptr noundef nonnull %0, ptr noundef nonnull %1) #8
  br label %10

10:                                               ; preds = %8, %6, %3
  %.0 = phi i1 [ %9, %8 ], [ %7, %6 ], [ %4, %3 ]
  ret i1 %.0
}